; Function Attrs: nounwind uwtable
define internal range(i32 -2147483648, 1) i32 @cbs_vp8_split_fragment(ptr readnone captures(none) %0, ptr noundef %1, i32 %2) #0 {
  %4 = getelementptr inbounds nuw i8, ptr %1, i64 8
  %5 = load i64, ptr %4, align 8, !tbaa !4
  %6 = icmp eq i64 %5, 0
  br i1 %6, label %12, label %7

7:                                                ; preds = %3
  %8 = load ptr, ptr %1, align 8, !tbaa !14
  %9 = getelementptr inbounds nuw i8, ptr %1, i64 24
  %10 = load ptr, ptr %9, align 8, !tbaa !15
  %11 = tail call i32 @ff_cbs_append_unit_data(ptr noundef nonnull %1, i32 noundef 0, ptr noundef %8, i64 noundef %5, ptr noundef %10) #7
  %. = tail call i32 @llvm.smin.i32(i32 %11, i32 0)
  br label %12

12:                                               ; preds = %7, %3
  %.0 = phi i32 [ -1094995529, %3 ], [ %., %7 ]
  ret i32 %.0
}